; Function Attrs: mustprogress uwtable
define internal void @_ZN9grpc_core12_GLOBAL__N_128AresClientChannelDNSResolver18AresRequestWrapper6OrphanEv(ptr noundef nonnull align 8 dereferenceable(176) %0) unnamed_addr #5 align 2 personality ptr @__gxx_personality_v0 {
  %2 = getelementptr inbounds nuw i8, ptr %0, i64 16
  tail call void @_ZN4absl12lts_202407225Mutex4LockEv(ptr noundef nonnull align 8 dereferenceable(8) %2)
  %3 = getelementptr inbounds nuw i8, ptr %0, i64 64
  %4 = load ptr, ptr %3, align 8, !tbaa !176
  %.not = icmp eq ptr %4, null
  br i1 %.not, label %12, label %5

5:                                                ; preds = %1
  %6 = load ptr, ptr @grpc_cancel_ares_request, align 8, !tbaa !68
  invoke void %6(ptr noundef nonnull %4)
          to label %12 unwind label %7

7:                                                ; preds = %20, %15, %5
  %8 = landingpad { ptr, i32 }
          cleanup
  invoke void @_ZN4absl12lts_202407225Mutex6UnlockEv(ptr noundef nonnull align 8 dereferenceable(8) %2)
          to label %_ZN4absl12lts_202407229MutexLockD2Ev.exit unwind label %9

9:                                                ; preds = %7
  %10 = landingpad { ptr, i32 }
          catch ptr null
  %11 = extractvalue { ptr, i32 } %10, 0
  tail call void @__clang_call_terminate(ptr %11) #36
  unreachable

_ZN4absl12lts_202407229MutexLockD2Ev.exit:        ; preds = %7
  resume { ptr, i32 } %8

12:                                               ; preds = %5, %1
  %13 = getelementptr inbounds nuw i8, ptr %0, i64 104
  %14 = load ptr, ptr %13, align 8, !tbaa !176
  %.not5 = icmp eq ptr %14, null
  br i1 %.not5, label %17, label %15

15:                                               ; preds = %12
  %16 = load ptr, ptr @grpc_cancel_ares_request, align 8, !tbaa !68
  invoke void %16(ptr noundef nonnull %14)
          to label %17 unwind label %7

17:                                               ; preds = %15, %12
  %18 = getelementptr inbounds nuw i8, ptr %0, i64 144
  %19 = load ptr, ptr %18, align 8, !tbaa !176
  %.not6 = icmp eq ptr %19, null
  br i1 %.not6, label %22, label %20

20:                                               ; preds = %17
  %21 = load ptr, ptr @grpc_cancel_ares_request, align 8, !tbaa !68
  invoke void %21(ptr noundef nonnull %19)
          to label %22 unwind label %7

22:                                               ; preds = %20, %17
  invoke void @_ZN4absl12lts_202407225Mutex6UnlockEv(ptr noundef nonnull align 8 dereferenceable(8) %2)
          to label %_ZN4absl12lts_202407229MutexLockD2Ev.exit2 unwind label %23

23:                                               ; preds = %22
  %24 = landingpad { ptr, i32 }
          catch ptr null
  %25 = extractvalue { ptr, i32 } %24, 0
  tail call void @__clang_call_terminate(ptr %25) #36
  unreachable

_ZN4absl12lts_202407229MutexLockD2Ev.exit2:       ; preds = %22
  %26 = getelementptr inbounds nuw i8, ptr %0, i64 8
  %27 = atomicrmw sub ptr %26, i64 1 acq_rel, align 8
  %28 = icmp eq i64 %27, 1
  br i1 %28, label %29, label %_ZN9grpc_core20InternallyRefCountedINS_12_GLOBAL__N_128AresClientChannelDNSResolver18AresRequestWrapperENS_11UnrefDeleteEE5UnrefERKNS_13DebugLocationEPKc.exit, !prof !53

29:                                               ; preds = %_ZN4absl12lts_202407229MutexLockD2Ev.exit2
  tail call void @_ZN9grpc_core12_GLOBAL__N_128AresClientChannelDNSResolver18AresRequestWrapperD2Ev(ptr noundef nonnull align 8 dereferenceable(176) %0) #34
  tail call void @_ZdlPvm(ptr noundef nonnull align 8 dereferenceable(16) %0, i64 noundef 176) #37
  br label %_ZN9grpc_core20InternallyRefCountedINS_12_GLOBAL__N_128AresClientChannelDNSResolver18AresRequestWrapperENS_11UnrefDeleteEE5UnrefERKNS_13DebugLocationEPKc.exit

_ZN9grpc_core20InternallyRefCountedINS_12_GLOBAL__N_128AresClientChannelDNSResolver18AresRequestWrapperENS_11UnrefDeleteEE5UnrefERKNS_13DebugLocationEPKc.exit: ; preds = %_ZN4absl12lts_202407229MutexLockD2Ev.exit2, %29
  ret void
}